target datalayout = "e-m:e-p270:32:32-p271:32:32-p272:64:64-i64:64-i128:128-f80:128-n8:16:32:64-S128"
target triple = "x86_64-pc-linux-gnu"

%struct._zend_jit_globals = type { i8, i8, i8, i8, i32, ptr, i64, i64, i64, double, i64, i64, i64, i64, i64, i64, i64, i64, i64, i64, i64, i64, i64, i64, ptr, i8, ptr, ptr, [64 x ptr], [64 x i8], [64 x i8], i32, ptr }
%struct._zend_array = type { %struct._zend_refcounted_h, %union.anon.17, i32, %union.anon.19, i32, i32, i32, i32, i64, ptr }
%struct._zend_refcounted_h = type { i32, %union.anon.16 }
%union.anon.16 = type { i32 }
%union.anon.17 = type { i32 }
%union.anon.19 = type { ptr }
%union._znode_op = type { i32 }
%struct._ir_ctx = type { ptr, i32, i32, i32, i32, i32, i32, i32, i32, i32, i32, %struct._ir_insn, ptr, ptr, ptr, i32, i32, i32, ptr, ptr, ptr, ptr, ptr, i32, i32, i64, i32, i32, i32, i64, i32, i32, i32, i32, ptr, ptr, ptr, ptr, ptr, ptr, %union.anon.13, ptr, i32, i32, i32, i64, i32, i32, i32, ptr, ptr, ptr, ptr, %struct._ir_strtab, [61 x i32], [14 x i32] }
%struct._ir_insn = type { %struct.anon, %union.anon.5 }
%struct.anon = type { %union.anon, %union.anon.4 }
%union.anon = type { i32 }
%union.anon.4 = type { i32 }
%union.anon.5 = type { %union._ir_val }
%union._ir_val = type { double }
%union.anon.13 = type { ptr }
%struct._ir_strtab = type { ptr, i32, i32, i32, i32, ptr, i32, i32 }
%struct._zend_jit_trace_stack = type { %union.anon.14, i32 }
%union.anon.14 = type { i32 }
%struct._zend_jit_ctx = type { %struct._ir_ctx, ptr, i8, i8, i8, i32, i32, i32, i32, i32, ptr, ptr, ptr, ptr, ptr, ptr, ptr, ptr, ptr, i32, ptr, i32, %struct._zend_array, [32 x i32] }
%struct.anon.15 = type { i8, i8, i8, i8 }
%struct._zend_jit_reg_var = type { i32, i32 }
%struct._zend_jit_trace_stack_frame = type { ptr, ptr, ptr, ptr, ptr, i32, i32, i32, i32, i32, [1 x %struct._zend_jit_trace_stack] }

@jit_globals = hidden global %struct._zend_jit_globals zeroinitializer, align 8

; Function Attrs: nounwind uwtable
define internal void @jit_set_Z_TYPE_INFO(ptr noundef %0, i64 noundef %1, i32 noundef %2) #0 {
  %4 = alloca ptr, align 8
  %5 = alloca i64, align 8
  %6 = alloca i32, align 4
  store ptr %0, ptr %4, align 8
  store i64 %1, ptr %5, align 8
  store i32 %2, ptr %6, align 4
  %7 = load i32, ptr %6, align 4
  %8 = icmp ult i32 %7, 6
  br i1 %8, label %9, label %42

9:                                                ; preds = %3
  %10 = load i64, ptr %5, align 8
  %11 = and i64 %10, 3
  %12 = icmp eq i64 %11, 1
  br i1 %12, label %13, label %42

13:                                               ; preds = %9
  %14 = load i64, ptr %5, align 8
  %15 = lshr i64 %14, 2
  %16 = and i64 %15, 63
  %17 = trunc i64 %16 to i8
  %18 = sext i8 %17 to i32
  %19 = icmp eq i32 %18, 14
  br i1 %19, label %20, label %42

20:                                               ; preds = %13
  %21 = load ptr, ptr getelementptr inbounds (%struct._zend_jit_globals, ptr @jit_globals, i32 0, i32 27), align 8
  %22 = icmp ne ptr %21, null
  br i1 %22, label %23, label %42

23:                                               ; preds = %20
  %24 = load ptr, ptr getelementptr inbounds (%struct._zend_jit_globals, ptr @jit_globals, i32 0, i32 27), align 8
  %25 = getelementptr inbounds %struct._zend_jit_trace_stack_frame, ptr %24, i32 0, i32 10
  %26 = load i64, ptr %5, align 8
  %27 = lshr i64 %26, 8
  %28 = trunc i64 %27 to i32
  %29 = zext i32 %28 to i64
  %30 = udiv i64 %29, 16
  %31 = sub i64 %30, 5
  %32 = trunc i64 %31 to i32
  %33 = zext i32 %32 to i64
  %34 = getelementptr inbounds [1 x %struct._zend_jit_trace_stack], ptr %25, i64 0, i64 %33
  %35 = getelementptr inbounds %struct._zend_jit_trace_stack, ptr %34, i32 0, i32 0
  %36 = getelementptr inbounds %struct.anon.15, ptr %35, i32 0, i32 1
  %37 = load i8, ptr %36, align 1
  %38 = zext i8 %37 to i32
  %39 = load i32, ptr %6, align 4
  %40 = icmp eq i32 %38, %39
  br i1 %40, label %41, label %42

41:                                               ; preds = %23
  br label %49

42:                                               ; preds = %23, %20, %13, %9, %3
  %43 = load ptr, ptr %4, align 8
  %44 = load i64, ptr %5, align 8
  %45 = load ptr, ptr %4, align 8
  %46 = getelementptr inbounds %struct._zend_jit_ctx, ptr %45, i32 0, i32 0
  %47 = load i32, ptr %6, align 4
  %48 = call i32 @ir_const_u32(ptr noundef %46, i32 noundef %47)
  call void @jit_set_Z_TYPE_INFO_ex(ptr noundef %43, i64 noundef %44, i32 noundef %48)
  br label %49

49:                                               ; preds = %42, %41
  ret void
}

; Function Attrs: nounwind uwtable
define internal i32 @zend_jit_invalidate_var_if_necessary(ptr noundef %0, i8 noundef zeroext %1, i64 noundef %2, i32 %3) #0 {
  %5 = alloca %union._znode_op, align 4
  %6 = alloca ptr, align 8
  %7 = alloca i8, align 1
  %8 = alloca i64, align 8
  %9 = alloca i64, align 8
  %10 = getelementptr inbounds %union._znode_op, ptr %5, i32 0, i32 0
  store i32 %3, ptr %10, align 4
  store ptr %0, ptr %6, align 8
  store i8 %1, ptr %7, align 1
  store i64 %2, ptr %8, align 8
  %11 = load i8, ptr %7, align 1
  %12 = zext i8 %11 to i32
  %13 = and i32 %12, 6
  %14 = icmp ne i32 %13, 0
  br i1 %14, label %15, label %81

15:                                               ; preds = %4
  %16 = load i64, ptr %8, align 8
  %17 = and i64 %16, 3
  %18 = icmp eq i64 %17, 2
  br i1 %18, label %19, label %81

19:                                               ; preds = %15
  %20 = load ptr, ptr %6, align 8
  %21 = getelementptr inbounds %struct._zend_jit_ctx, ptr %20, i32 0, i32 18
  %22 = load ptr, ptr %21, align 8
  %23 = icmp ne ptr %22, null
  br i1 %23, label %24, label %45

24:                                               ; preds = %19
  %25 = load ptr, ptr %6, align 8
  %26 = getelementptr inbounds %struct._zend_jit_ctx, ptr %25, i32 0, i32 18
  %27 = load ptr, ptr %26, align 8
  %28 = load i64, ptr %8, align 8
  %29 = lshr i64 %28, 2
  %30 = getelementptr inbounds %struct._zend_jit_reg_var, ptr %27, i64 %29
  %31 = getelementptr inbounds %struct._zend_jit_reg_var, ptr %30, i32 0, i32 0
  %32 = load i32, ptr %31, align 4
  %33 = icmp ne i32 %32, 0
  br i1 %33, label %34, label %45

34:                                               ; preds = %24
  %35 = load ptr, ptr %6, align 8
  %36 = getelementptr inbounds %struct._zend_jit_ctx, ptr %35, i32 0, i32 18
  %37 = load ptr, ptr %36, align 8
  %38 = load i64, ptr %8, align 8
  %39 = lshr i64 %38, 2
  %40 = getelementptr inbounds %struct._zend_jit_reg_var, ptr %37, i64 %39
  %41 = getelementptr inbounds %struct._zend_jit_reg_var, ptr %40, i32 0, i32 1
  %42 = load i32, ptr %41, align 4
  %43 = and i32 %42, 1
  %44 = icmp ne i32 %43, 0
  br i1 %44, label %81, label %46

45:                                               ; preds = %24, %19
  br i1 false, label %81, label %46

46:                                               ; preds = %45, %34
  %47 = load ptr, ptr %6, align 8
  %48 = getelementptr inbounds %struct._zend_jit_ctx, ptr %47, i32 0, i32 18
  %49 = load ptr, ptr %48, align 8
  %50 = icmp ne ptr %49, null
  br i1 %50, label %51, label %72

51:                                               ; preds = %46
  %52 = load ptr, ptr %6, align 8
  %53 = getelementptr inbounds %struct._zend_jit_ctx, ptr %52, i32 0, i32 18
  %54 = load ptr, ptr %53, align 8
  %55 = load i64, ptr %8, align 8
  %56 = lshr i64 %55, 2
  %57 = getelementptr inbounds %struct._zend_jit_reg_var, ptr %54, i64 %56
  %58 = getelementptr inbounds %struct._zend_jit_reg_var, ptr %57, i32 0, i32 0
  %59 = load i32, ptr %58, align 4
  %60 = icmp ne i32 %59, 0
  br i1 %60, label %61, label %72

61:                                               ; preds = %51
  %62 = load ptr, ptr %6, align 8
  %63 = getelementptr inbounds %struct._zend_jit_ctx, ptr %62, i32 0, i32 18
  %64 = load ptr, ptr %63, align 8
  %65 = load i64, ptr %8, align 8
  %66 = lshr i64 %65, 2
  %67 = getelementptr inbounds %struct._zend_jit_reg_var, ptr %64, i64 %66
  %68 = getelementptr inbounds %struct._zend_jit_reg_var, ptr %67, i32 0, i32 1
  %69 = load i32, ptr %68, align 4
  %70 = and i32 %69, 2
  %71 = icmp ne i32 %70, 0
  br i1 %71, label %81, label %73

72:                                               ; preds = %51, %46
  br i1 false, label %81, label %73

73:                                               ; preds = %72, %61
  %74 = load i32, ptr %5, align 4
  %75 = zext i32 %74 to i64
  %76 = shl i64 %75, 8
  %77 = or i64 %76, 56
  %78 = or i64 %77, 1
  store i64 %78, ptr %9, align 8
  %79 = load ptr, ptr %6, align 8
  %80 = load i64, ptr %9, align 8
  call void @jit_set_Z_TYPE_INFO(ptr noundef %79, i64 noundef %80, i32 noundef 0)
  br label %81

81:                                               ; preds = %73, %72, %61, %45, %34, %15, %4
  ret i32 1
}