; Function Attrs: nounwind uwtable
define internal fastcc void @zend_jit_invalidate_var_if_necessary(ptr noundef %0, i8 noundef zeroext %1, i64 noundef %2, i32 %3) unnamed_addr #0 {
  %5 = and i8 %1, 6
  %.not = icmp ne i8 %5, 0
  %6 = and i64 %2, 3
  %7 = icmp eq i64 %6, 2
  %or.cond = and i1 %.not, %7
  br i1 %or.cond, label %8, label %jit_set_Z_TYPE_INFO.exit

8:                                                ; preds = %4
  %9 = getelementptr inbounds i8, ptr %0, i64 776
  %10 = load ptr, ptr %9, align 8
  %.not14 = icmp eq ptr %10, null
  br i1 %.not14, label %.thread, label %11

11:                                               ; preds = %8
  %12 = lshr i64 %2, 2
  %13 = getelementptr inbounds %struct._zend_jit_reg_var, ptr %10, i64 %12
  %14 = load i32, ptr %13, align 4
  %.not15 = icmp eq i32 %14, 0
  br i1 %.not15, label %.thread, label %15

15:                                               ; preds = %11
  %16 = getelementptr inbounds i8, ptr %13, i64 4
  %17 = load i32, ptr %16, align 4
  %18 = and i32 %17, 1
  %.not16 = icmp eq i32 %18, 0
  br i1 %.not16, label %19, label %jit_set_Z_TYPE_INFO.exit

19:                                               ; preds = %15
  %20 = getelementptr inbounds i8, ptr %13, i64 4
  %21 = load i32, ptr %20, align 4
  %22 = and i32 %21, 2
  %.not19 = icmp eq i32 %22, 0
  br i1 %.not19, label %.thread, label %jit_set_Z_TYPE_INFO.exit

.thread:                                          ; preds = %11, %8, %19
  %23 = zext i32 %3 to i64
  %24 = shl nuw nsw i64 %23, 8
  %25 = or disjoint i64 %24, 57
  %26 = load ptr, ptr getelementptr inbounds (%struct._zend_jit_globals, ptr @jit_globals, i64 0, i32 27), align 8
  %.not21 = icmp eq ptr %26, null
  br i1 %.not21, label %36, label %27

27:                                               ; preds = %.thread
  %28 = getelementptr inbounds i8, ptr %26, i64 60
  %29 = lshr i64 %23, 4
  %30 = add nuw nsw i64 %29, 4294967291
  %31 = and i64 %30, 4294967295
  %32 = getelementptr inbounds [1 x %struct._zend_jit_trace_stack], ptr %28, i64 0, i64 %31
  %33 = getelementptr inbounds i8, ptr %32, i64 1
  %34 = load i8, ptr %33, align 1
  %35 = icmp eq i8 %34, 0
  br i1 %35, label %jit_set_Z_TYPE_INFO.exit, label %36

36:                                               ; preds = %27, %.thread
  %37 = tail call i32 @ir_const_u32(ptr noundef nonnull %0, i32 noundef 0) #32
  tail call fastcc void @jit_set_Z_TYPE_INFO_ex(ptr noundef nonnull %0, i64 noundef %25, i32 noundef %37)
  br label %jit_set_Z_TYPE_INFO.exit

jit_set_Z_TYPE_INFO.exit:                         ; preds = %36, %27, %19, %15, %4
  ret void
}